target datalayout = "e-m:e-p270:32:32-p271:32:32-p272:64:64-i64:64-i128:128-f80:128-n8:16:32:64-S128"
target triple = "x86_64-pc-linux-gnu"

%struct._object = type { %union.anon, ptr }
%union.anon = type { i64 }
%struct.binascii_state = type { ptr, ptr }
%struct.Py_buffer = type { ptr, ptr, i64, i64, i32, i32, ptr, ptr, ptr, ptr, ptr }
%struct.PyVarObject = type { %struct._object, i64 }
%struct._PyBytesWriter = type { ptr, i64, i64, i32, i32, i32, [512 x i8] }

@.str.20 = private unnamed_addr constant [25 x i8] c"At most 45 bytes at once\00", align 1

; Function Attrs: inlinehint nounwind uwtable
define internal ptr @get_binascii_state(ptr noundef %0) #4 {
  %2 = alloca ptr, align 8
  store ptr %0, ptr %2, align 8, !tbaa !3
  %3 = load ptr, ptr %2, align 8, !tbaa !3
  %4 = call ptr @PyModule_GetState(ptr noundef %3)
  ret ptr %4
}

; Function Attrs: inlinehint nounwind uwtable
define internal i64 @Py_SIZE(ptr noundef %0) #4 {
  %2 = alloca ptr, align 8
  store ptr %0, ptr %2, align 8, !tbaa !3
  %3 = load ptr, ptr %2, align 8, !tbaa !3
  %4 = getelementptr inbounds nuw %struct.PyVarObject, ptr %3, i32 0, i32 1
  %5 = load i64, ptr %4, align 8, !tbaa !48
  ret i64 %5
}

; Function Attrs: nounwind uwtable
define internal ptr @binascii_b2a_uu_impl(ptr noundef %0, ptr noundef %1, i32 noundef %2) #0 {
  %4 = alloca ptr, align 8
  %5 = alloca ptr, align 8
  %6 = alloca ptr, align 8
  %7 = alloca i32, align 4
  %8 = alloca ptr, align 8
  %9 = alloca ptr, align 8
  %10 = alloca i32, align 4
  %11 = alloca i8, align 1
  %12 = alloca i32, align 4
  %13 = alloca ptr, align 8
  %14 = alloca i64, align 8
  %15 = alloca i64, align 8
  %16 = alloca %struct._PyBytesWriter, align 8
  %17 = alloca i32, align 4
  store ptr %0, ptr %5, align 8, !tbaa !3
  store ptr %1, ptr %6, align 8, !tbaa !8
  store i32 %2, ptr %7, align 4, !tbaa !13
  call void @llvm.lifetime.start.p0(i64 8, ptr %8) #7
  call void @llvm.lifetime.start.p0(i64 8, ptr %9) #7
  call void @llvm.lifetime.start.p0(i64 4, ptr %10) #7
  store i32 0, ptr %10, align 4, !tbaa !13
  call void @llvm.lifetime.start.p0(i64 1, ptr %11) #7
  call void @llvm.lifetime.start.p0(i64 4, ptr %12) #7
  store i32 0, ptr %12, align 4, !tbaa !13
  call void @llvm.lifetime.start.p0(i64 8, ptr %13) #7
  call void @llvm.lifetime.start.p0(i64 8, ptr %14) #7
  call void @llvm.lifetime.start.p0(i64 8, ptr %15) #7
  call void @llvm.lifetime.start.p0(i64 552, ptr %16) #7
  call void @_PyBytesWriter_Init(ptr noundef %16)
  %18 = load ptr, ptr %6, align 8, !tbaa !8
  %19 = getelementptr inbounds nuw %struct.Py_buffer, ptr %18, i32 0, i32 0
  %20 = load ptr, ptr %19, align 8, !tbaa !24
  store ptr %20, ptr %9, align 8, !tbaa !35
  %21 = load ptr, ptr %6, align 8, !tbaa !8
  %22 = getelementptr inbounds nuw %struct.Py_buffer, ptr %21, i32 0, i32 2
  %23 = load i64, ptr %22, align 8, !tbaa !25
  store i64 %23, ptr %14, align 8, !tbaa !23
  %24 = load i64, ptr %14, align 8, !tbaa !23
  %25 = icmp sgt i64 %24, 45
  br i1 %25, label %26, label %36

26:                                               ; preds = %3
  %27 = load ptr, ptr %5, align 8, !tbaa !3
  %28 = call ptr @get_binascii_state(ptr noundef %27)
  store ptr %28, ptr %13, align 8, !tbaa !9
  %29 = load ptr, ptr %13, align 8, !tbaa !9
  %30 = icmp eq ptr %29, null
  br i1 %30, label %31, label %32

31:                                               ; preds = %26
  store ptr null, ptr %4, align 8
  store i32 1, ptr %17, align 4
  br label %128

32:                                               ; preds = %26
  %33 = load ptr, ptr %13, align 8, !tbaa !9
  %34 = getelementptr inbounds nuw %struct.binascii_state, ptr %33, i32 0, i32 0
  %35 = load ptr, ptr %34, align 8, !tbaa !11
  call void @PyErr_SetString(ptr noundef %35, ptr noundef @.str.20)
  store ptr null, ptr %4, align 8
  store i32 1, ptr %17, align 4
  br label %128

36:                                               ; preds = %3
  %37 = load i64, ptr %14, align 8, !tbaa !23
  %38 = add i64 %37, 2
  %39 = sdiv i64 %38, 3
  %40 = mul i64 %39, 4
  %41 = add i64 2, %40
  store i64 %41, ptr %15, align 8, !tbaa !23
  %42 = load i64, ptr %15, align 8, !tbaa !23
  %43 = call ptr @_PyBytesWriter_Alloc(ptr noundef %16, i64 noundef %42)
  store ptr %43, ptr %8, align 8, !tbaa !35
  %44 = load ptr, ptr %8, align 8, !tbaa !35
  %45 = icmp eq ptr %44, null
  br i1 %45, label %46, label %47

46:                                               ; preds = %36
  store ptr null, ptr %4, align 8
  store i32 1, ptr %17, align 4
  br label %128

47:                                               ; preds = %36
  %48 = load i32, ptr %7, align 4, !tbaa !13
  %49 = icmp ne i32 %48, 0
  br i1 %49, label %50, label %56

50:                                               ; preds = %47
  %51 = load i64, ptr %14, align 8, !tbaa !23
  %52 = icmp ne i64 %51, 0
  br i1 %52, label %56, label %53

53:                                               ; preds = %50
  %54 = load ptr, ptr %8, align 8, !tbaa !35
  %55 = getelementptr i8, ptr %54, i32 1
  store ptr %55, ptr %8, align 8, !tbaa !35
  store i8 96, ptr %54, align 1, !tbaa !36
  br label %64

56:                                               ; preds = %50, %47
  %57 = load i64, ptr %14, align 8, !tbaa !23
  %58 = trunc i64 %57 to i8
  %59 = zext i8 %58 to i32
  %60 = add i32 32, %59
  %61 = trunc i32 %60 to i8
  %62 = load ptr, ptr %8, align 8, !tbaa !35
  %63 = getelementptr i8, ptr %62, i32 1
  store ptr %63, ptr %8, align 8, !tbaa !35
  store i8 %61, ptr %62, align 1, !tbaa !36
  br label %64

64:                                               ; preds = %56, %53
  br label %65

65:                                               ; preds = %118, %64
  %66 = load i64, ptr %14, align 8, !tbaa !23
  %67 = icmp sgt i64 %66, 0
  br i1 %67, label %71, label %68

68:                                               ; preds = %65
  %69 = load i32, ptr %10, align 4, !tbaa !13
  %70 = icmp ne i32 %69, 0
  br label %71

71:                                               ; preds = %68, %65
  %72 = phi i1 [ true, %65 ], [ %70, %68 ]
  br i1 %72, label %73, label %123

73:                                               ; preds = %71
  %74 = load i64, ptr %14, align 8, !tbaa !23
  %75 = icmp sgt i64 %74, 0
  br i1 %75, label %76, label %83

76:                                               ; preds = %73
  %77 = load i32, ptr %12, align 4, !tbaa !13
  %78 = shl i32 %77, 8
  %79 = load ptr, ptr %9, align 8, !tbaa !35
  %80 = load i8, ptr %79, align 1, !tbaa !36
  %81 = zext i8 %80 to i32
  %82 = or i32 %78, %81
  store i32 %82, ptr %12, align 4, !tbaa !13
  br label %86

83:                                               ; preds = %73
  %84 = load i32, ptr %12, align 4, !tbaa !13
  %85 = shl i32 %84, 8
  store i32 %85, ptr %12, align 4, !tbaa !13
  br label %86

86:                                               ; preds = %83, %76
  %87 = load i32, ptr %10, align 4, !tbaa !13
  %88 = add i32 %87, 8
  store i32 %88, ptr %10, align 4, !tbaa !13
  br label %89

89:                                               ; preds = %116, %86
  %90 = load i32, ptr %10, align 4, !tbaa !13
  %91 = icmp sge i32 %90, 6
  br i1 %91, label %92, label %117

92:                                               ; preds = %89
  %93 = load i32, ptr %12, align 4, !tbaa !13
  %94 = load i32, ptr %10, align 4, !tbaa !13
  %95 = sub i32 %94, 6
  %96 = lshr i32 %93, %95
  %97 = and i32 %96, 63
  %98 = trunc i32 %97 to i8
  store i8 %98, ptr %11, align 1, !tbaa !36
  %99 = load i32, ptr %10, align 4, !tbaa !13
  %100 = sub i32 %99, 6
  store i32 %100, ptr %10, align 4, !tbaa !13
  %101 = load i32, ptr %7, align 4, !tbaa !13
  %102 = icmp ne i32 %101, 0
  br i1 %102, label %103, label %109

103:                                              ; preds = %92
  %104 = load i8, ptr %11, align 1, !tbaa !36
  %105 = icmp ne i8 %104, 0
  br i1 %105, label %109, label %106

106:                                              ; preds = %103
  %107 = load ptr, ptr %8, align 8, !tbaa !35
  %108 = getelementptr i8, ptr %107, i32 1
  store ptr %108, ptr %8, align 8, !tbaa !35
  store i8 96, ptr %107, align 1, !tbaa !36
  br label %116

109:                                              ; preds = %103, %92
  %110 = load i8, ptr %11, align 1, !tbaa !36
  %111 = zext i8 %110 to i32
  %112 = add i32 %111, 32
  %113 = trunc i32 %112 to i8
  %114 = load ptr, ptr %8, align 8, !tbaa !35
  %115 = getelementptr i8, ptr %114, i32 1
  store ptr %115, ptr %8, align 8, !tbaa !35
  store i8 %113, ptr %114, align 1, !tbaa !36
  br label %116

116:                                              ; preds = %109, %106
  br label %89, !llvm.loop !46

117:                                              ; preds = %89
  br label %118

118:                                              ; preds = %117
  %119 = load i64, ptr %14, align 8, !tbaa !23
  %120 = add i64 %119, -1
  store i64 %120, ptr %14, align 8, !tbaa !23
  %121 = load ptr, ptr %9, align 8, !tbaa !35
  %122 = getelementptr i8, ptr %121, i32 1
  store ptr %122, ptr %9, align 8, !tbaa !35
  br label %65, !llvm.loop !47

123:                                              ; preds = %71
  %124 = load ptr, ptr %8, align 8, !tbaa !35
  %125 = getelementptr i8, ptr %124, i32 1
  store ptr %125, ptr %8, align 8, !tbaa !35
  store i8 10, ptr %124, align 1, !tbaa !36
  %126 = load ptr, ptr %8, align 8, !tbaa !35
  %127 = call ptr @_PyBytesWriter_Finish(ptr noundef %16, ptr noundef %126)
  store ptr %127, ptr %4, align 8
  store i32 1, ptr %17, align 4
  br label %128

128:                                              ; preds = %123, %46, %32, %31
  call void @llvm.lifetime.end.p0(i64 552, ptr %16) #7
  call void @llvm.lifetime.end.p0(i64 8, ptr %15) #7
  call void @llvm.lifetime.end.p0(i64 8, ptr %14) #7
  call void @llvm.lifetime.end.p0(i64 8, ptr %13) #7
  call void @llvm.lifetime.end.p0(i64 4, ptr %12) #7
  call void @llvm.lifetime.end.p0(i64 1, ptr %11) #7
  call void @llvm.lifetime.end.p0(i64 4, ptr %10) #7
  call void @llvm.lifetime.end.p0(i64 8, ptr %9) #7
  call void @llvm.lifetime.end.p0(i64 8, ptr %8) #7
  %129 = load ptr, ptr %4, align 8
  ret ptr %129
}

; Function Attrs: inlinehint nounwind uwtable
define internal i64 @PyTuple_GET_SIZE(ptr noundef %0) #4 {
  %2 = alloca ptr, align 8
  %3 = alloca ptr, align 8
  store ptr %0, ptr %2, align 8, !tbaa !3
  call void @llvm.lifetime.start.p0(i64 8, ptr %3) #7
  %4 = load ptr, ptr %2, align 8, !tbaa !3
  store ptr %4, ptr %3, align 8, !tbaa !8
  %5 = load ptr, ptr %3, align 8, !tbaa !8
  %6 = call i64 @Py_SIZE(ptr noundef %5)
  call void @llvm.lifetime.end.p0(i64 8, ptr %3) #7
  ret i64 %6
}

; Function Attrs: nounwind uwtable
define internal ptr @binascii_b2a_uu(ptr noundef %0, ptr noundef %1, i64 noundef %2, ptr noundef %3) #0 {
  %5 = alloca ptr, align 8
  %6 = alloca ptr, align 8
  %7 = alloca i64, align 8
  %8 = alloca ptr, align 8
  %9 = alloca ptr, align 8
  %10 = alloca [2 x ptr], align 16
  %11 = alloca i64, align 8
  %12 = alloca %struct.Py_buffer, align 8
  %13 = alloca i32, align 4
  store ptr %0, ptr %5, align 8, !tbaa !3
  store ptr %1, ptr %6, align 8, !tbaa !16
  store i64 %2, ptr %7, align 8, !tbaa !23
  store ptr %3, ptr %8, align 8, !tbaa !3
  call void @llvm.lifetime.start.p0(i64 8, ptr %9) #7
  store ptr null, ptr %9, align 8, !tbaa !3
  call void @llvm.lifetime.start.p0(i64 16, ptr %10) #7
  call void @llvm.lifetime.start.p0(i64 8, ptr %11) #7
  %14 = load i64, ptr %7, align 8, !tbaa !23
  %15 = load ptr, ptr %8, align 8, !tbaa !3
  %16 = icmp ne ptr %15, null
  br i1 %16, label %17, label %20

17:                                               ; preds = %4
  %18 = load ptr, ptr %8, align 8, !tbaa !3
  %19 = call i64 @PyTuple_GET_SIZE(ptr noundef %18)
  br label %21

20:                                               ; preds = %4
  br label %21

21:                                               ; preds = %20, %17
  %22 = phi i64 [ %19, %17 ], [ 0, %20 ]
  %23 = add i64 %14, %22
  %24 = sub i64 %23, 1
  store i64 %24, ptr %11, align 8, !tbaa !23
  call void @llvm.lifetime.start.p0(i64 80, ptr %12) #7
  call void @llvm.memset.p0.i64(ptr align 8 %12, i8 0, i64 80, i1 false)
  call void @llvm.lifetime.start.p0(i64 4, ptr %13) #7
  store i32 0, ptr %13, align 4, !tbaa !13
  %25 = load ptr, ptr %8, align 8, !tbaa !3
  %26 = icmp eq ptr %25, null
  br i1 %26, label %27, label %38

27:                                               ; preds = %21
  %28 = load i64, ptr %7, align 8, !tbaa !23
  %29 = icmp sle i64 1, %28
  br i1 %29, label %30, label %38

30:                                               ; preds = %27
  %31 = load i64, ptr %7, align 8, !tbaa !23
  %32 = icmp sle i64 %31, 1
  br i1 %32, label %33, label %38

33:                                               ; preds = %30
  %34 = load ptr, ptr %6, align 8, !tbaa !16
  %35 = icmp ne ptr %34, null
  br i1 %35, label %36, label %38

36:                                               ; preds = %33
  %37 = load ptr, ptr %6, align 8, !tbaa !16
  br label %44

38:                                               ; preds = %33, %30, %27, %21
  %39 = load ptr, ptr %6, align 8, !tbaa !16
  %40 = load i64, ptr %7, align 8, !tbaa !23
  %41 = load ptr, ptr %8, align 8, !tbaa !3
  %42 = getelementptr inbounds [2 x ptr], ptr %10, i64 0, i64 0
  %43 = call ptr @_PyArg_UnpackKeywords(ptr noundef %39, i64 noundef %40, ptr noundef null, ptr noundef %41, ptr noundef @binascii_b2a_uu._parser, i32 noundef 1, i32 noundef 1, i32 noundef 0, i32 noundef 0, ptr noundef %42)
  br label %44

44:                                               ; preds = %38, %36
  %45 = phi ptr [ %37, %36 ], [ %43, %38 ]
  store ptr %45, ptr %6, align 8, !tbaa !16
  %46 = load ptr, ptr %6, align 8, !tbaa !16
  %47 = icmp ne ptr %46, null
  br i1 %47, label %49, label %48

48:                                               ; preds = %44
  br label %73

49:                                               ; preds = %44
  %50 = load ptr, ptr %6, align 8, !tbaa !16
  %51 = getelementptr ptr, ptr %50, i64 0
  %52 = load ptr, ptr %51, align 8, !tbaa !3
  %53 = call i32 @PyObject_GetBuffer(ptr noundef %52, ptr noundef %12, i32 noundef 0)
  %54 = icmp ne i32 %53, 0
  br i1 %54, label %55, label %56

55:                                               ; preds = %49
  br label %73

56:                                               ; preds = %49
  %57 = load i64, ptr %11, align 8, !tbaa !23
  %58 = icmp ne i64 %57, 0
  br i1 %58, label %60, label %59

59:                                               ; preds = %56
  br label %69

60:                                               ; preds = %56
  %61 = load ptr, ptr %6, align 8, !tbaa !16
  %62 = getelementptr ptr, ptr %61, i64 1
  %63 = load ptr, ptr %62, align 8, !tbaa !3
  %64 = call i32 @PyObject_IsTrue(ptr noundef %63)
  store i32 %64, ptr %13, align 4, !tbaa !13
  %65 = load i32, ptr %13, align 4, !tbaa !13
  %66 = icmp slt i32 %65, 0
  br i1 %66, label %67, label %68

67:                                               ; preds = %60
  br label %73

68:                                               ; preds = %60
  br label %69

69:                                               ; preds = %68, %59
  %70 = load ptr, ptr %5, align 8, !tbaa !3
  %71 = load i32, ptr %13, align 4, !tbaa !13
  %72 = call ptr @binascii_b2a_uu_impl(ptr noundef %70, ptr noundef %12, i32 noundef %71)
  store ptr %72, ptr %9, align 8, !tbaa !3
  br label %73

73:                                               ; preds = %69, %67, %55, %48
  %74 = getelementptr inbounds nuw %struct.Py_buffer, ptr %12, i32 0, i32 1
  %75 = load ptr, ptr %74, align 8, !tbaa !18
  %76 = icmp ne ptr %75, null
  br i1 %76, label %77, label %78

77:                                               ; preds = %73
  call void @PyBuffer_Release(ptr noundef %12)
  br label %78

78:                                               ; preds = %77, %73
  %79 = load ptr, ptr %9, align 8, !tbaa !3
  call void @llvm.lifetime.end.p0(i64 4, ptr %13) #7
  call void @llvm.lifetime.end.p0(i64 80, ptr %12) #7
  call void @llvm.lifetime.end.p0(i64 8, ptr %11) #7
  call void @llvm.lifetime.end.p0(i64 16, ptr %10) #7
  call void @llvm.lifetime.end.p0(i64 8, ptr %9) #7
  ret ptr %79
}