; Function Attrs: nounwind uwtable
define internal ptr @binascii_b2a_uu(ptr noundef %0, ptr noundef %1, i64 noundef %2, ptr noundef %3) #0 {
  %5 = alloca %struct._PyBytesWriter, align 8
  %6 = alloca [2 x ptr], align 16
  %7 = alloca %struct.Py_buffer, align 8
  call void @llvm.lifetime.start.p0(i64 16, ptr nonnull %6) #5
  %.not = icmp eq ptr %3, null
  br i1 %.not, label %10, label %8

8:                                                ; preds = %4
  %9 = getelementptr i8, ptr %3, i64 16
  %.val = load i64, ptr %9, align 8, !tbaa !22
  br label %10

10:                                               ; preds = %4, %8
  %11 = phi i64 [ %.val, %8 ], [ 0, %4 ]
  %12 = add i64 %11, %2
  call void @llvm.lifetime.start.p0(i64 80, ptr nonnull %7) #5
  call void @llvm.memset.p0.i64(ptr noundef nonnull align 8 dereferenceable(80) %7, i8 0, i64 80, i1 false)
  %13 = icmp eq i64 %2, 1
  %14 = icmp ne ptr %1, null
  %15 = and i1 %14, %13
  %or.cond5 = and i1 %15, %.not
  br i1 %or.cond5, label %.thread, label %16

16:                                               ; preds = %10
  %17 = call ptr @_PyArg_UnpackKeywords(ptr noundef %1, i64 noundef %2, ptr noundef null, ptr noundef %3, ptr noundef nonnull @binascii_b2a_uu._parser, i32 noundef 1, i32 noundef 1, i32 noundef 0, i32 noundef 0, ptr noundef nonnull %6) #5
  %.not28 = icmp eq ptr %17, null
  br i1 %.not28, label %93, label %.thread

.thread:                                          ; preds = %10, %16
  %18 = phi ptr [ %17, %16 ], [ %1, %10 ]
  %19 = load ptr, ptr %18, align 8, !tbaa !10
  %20 = call i32 @PyObject_GetBuffer(ptr noundef %19, ptr noundef nonnull %7, i32 noundef 0) #5
  %.not29 = icmp eq i32 %20, 0
  br i1 %.not29, label %21, label %93

21:                                               ; preds = %.thread
  %.not30 = icmp eq i64 %12, 1
  br i1 %.not30, label %27, label %22

22:                                               ; preds = %21
  %23 = getelementptr i8, ptr %18, i64 8
  %24 = load ptr, ptr %23, align 8, !tbaa !10
  %25 = call i32 @PyObject_IsTrue(ptr noundef %24) #5
  %26 = icmp slt i32 %25, 0
  br i1 %26, label %93, label %27

27:                                               ; preds = %22, %21
  %.0 = phi i32 [ %25, %22 ], [ 0, %21 ]
  call void @llvm.lifetime.start.p0(i64 552, ptr nonnull %5) #5
  call void @_PyBytesWriter_Init(ptr noundef nonnull %5) #5
  %28 = load ptr, ptr %7, align 8, !tbaa !12
  %29 = getelementptr inbounds nuw i8, ptr %7, i64 16
  %30 = load i64, ptr %29, align 8, !tbaa !18
  %31 = icmp sgt i64 %30, 45
  br i1 %31, label %32, label %37

32:                                               ; preds = %27
  %33 = call ptr @PyModule_GetState(ptr noundef %0) #5
  %34 = icmp eq ptr %33, null
  br i1 %34, label %binascii_b2a_uu_impl.exit, label %35

35:                                               ; preds = %32
  %36 = load ptr, ptr %33, align 8, !tbaa !3
  call void @PyErr_SetString(ptr noundef %36, ptr noundef nonnull @.str.20) #5
  br label %binascii_b2a_uu_impl.exit

37:                                               ; preds = %27
  %38 = add nsw i64 %30, 2
  %39 = sdiv i64 %38, 3
  %40 = shl i64 %39, 2
  %41 = or disjoint i64 %40, 2
  %42 = call ptr @_PyBytesWriter_Alloc(ptr noundef nonnull %5, i64 noundef %41) #5
  %43 = icmp eq ptr %42, null
  br i1 %43, label %binascii_b2a_uu_impl.exit, label %44

44:                                               ; preds = %37
  %45 = icmp eq i32 %.0, 0
  %46 = icmp ne i64 %30, 0
  %or.cond.i = or i1 %45, %46
  %47 = trunc i64 %30 to i8
  %48 = add i8 %47, 32
  %storemerge.i = select i1 %or.cond.i, i8 %48, i8 96
  %.038.i = getelementptr i8, ptr %42, i64 1
  store i8 %storemerge.i, ptr %42, align 1, !tbaa !11
  %49 = icmp sgt i64 %30, 0
  br i1 %49, label %.lr.ph58.i, label %._crit_edge59.i

.lr.ph58.i:                                       ; preds = %44
  br i1 %45, label %.lr.ph58.split.us.i, label %.lr.ph58.split.i

.lr.ph58.split.us.i:                              ; preds = %.lr.ph58.i, %._crit_edge.split.us.us.i
  %50 = phi i1 [ %61, %._crit_edge.split.us.us.i ], [ true, %.lr.ph58.i ]
  %.03756.us.i = phi i64 [ %59, %._crit_edge.split.us.us.i ], [ %30, %.lr.ph58.i ]
  %.155.us.i = phi ptr [ %.2.lcssa.us.i, %._crit_edge.split.us.us.i ], [ %.038.i, %.lr.ph58.i ]
  %.03954.us.i = phi i32 [ %.140.us.i, %._crit_edge.split.us.us.i ], [ 0, %.lr.ph58.i ]
  %.04153.us.i = phi ptr [ %60, %._crit_edge.split.us.us.i ], [ %28, %.lr.ph58.i ]
  %.04252.us.i = phi i32 [ %.143.lcssa.us.i, %._crit_edge.split.us.us.i ], [ 0, %.lr.ph58.i ]
  %51 = shl i32 %.03954.us.i, 8
  br i1 %50, label %52, label %56

52:                                               ; preds = %.lr.ph58.split.us.i
  %53 = load i8, ptr %.04153.us.i, align 1, !tbaa !11
  %54 = zext i8 %53 to i32
  %55 = or disjoint i32 %51, %54
  br label %56

56:                                               ; preds = %52, %.lr.ph58.split.us.i
  %.140.us.i = phi i32 [ %55, %52 ], [ %51, %.lr.ph58.split.us.i ]
  %57 = add nsw i32 %.04252.us.i, 8
  %58 = icmp sgt i32 %.04252.us.i, -3
  br i1 %58, label %.lr.ph.us.i, label %._crit_edge.split.us.us.i

._crit_edge.split.us.us.i:                        ; preds = %.lr.ph.us.i, %56
  %.143.lcssa.us.i = phi i32 [ %57, %56 ], [ %64, %.lr.ph.us.i ]
  %.2.lcssa.us.i = phi ptr [ %.155.us.i, %56 ], [ %.3.us.us.i, %.lr.ph.us.i ]
  %59 = add i64 %.03756.us.i, -1
  %60 = getelementptr i8, ptr %.04153.us.i, i64 1
  %61 = icmp sgt i64 %59, 0
  %62 = icmp ne i32 %.143.lcssa.us.i, 0
  %63 = or i1 %61, %62
  br i1 %63, label %.lr.ph58.split.us.i, label %._crit_edge59.i, !llvm.loop !26

.lr.ph.us.i:                                      ; preds = %56, %.lr.ph.us.i
  %.249.us.us.i = phi ptr [ %.3.us.us.i, %.lr.ph.us.i ], [ %.155.us.i, %56 ]
  %.14348.us.us.i = phi i32 [ %64, %.lr.ph.us.i ], [ %57, %56 ]
  %64 = add nsw i32 %.14348.us.us.i, -6
  %65 = lshr i32 %.140.us.i, %64
  %66 = trunc i32 %65 to i8
  %67 = and i8 %66, 63
  %68 = add nuw nsw i8 %67, 32
  %.3.us.us.i = getelementptr i8, ptr %.249.us.us.i, i64 1
  store i8 %68, ptr %.249.us.us.i, align 1, !tbaa !11
  %69 = icmp samesign ugt i32 %.14348.us.us.i, 11
  br i1 %69, label %.lr.ph.us.i, label %._crit_edge.split.us.us.i, !llvm.loop !27

.lr.ph58.split.i:                                 ; preds = %.lr.ph58.i, %._crit_edge.split.i
  %70 = phi i1 [ %88, %._crit_edge.split.i ], [ true, %.lr.ph58.i ]
  %.03756.i = phi i64 [ %86, %._crit_edge.split.i ], [ %30, %.lr.ph58.i ]
  %.155.i = phi ptr [ %.2.lcssa.i, %._crit_edge.split.i ], [ %.038.i, %.lr.ph58.i ]
  %.03954.i = phi i32 [ %.140.i, %._crit_edge.split.i ], [ 0, %.lr.ph58.i ]
  %.04153.i = phi ptr [ %87, %._crit_edge.split.i ], [ %28, %.lr.ph58.i ]
  %.04252.i = phi i32 [ %.143.lcssa.i, %._crit_edge.split.i ], [ 0, %.lr.ph58.i ]
  %71 = shl i32 %.03954.i, 8
  br i1 %70, label %72, label %76

72:                                               ; preds = %.lr.ph58.split.i
  %73 = load i8, ptr %.04153.i, align 1, !tbaa !11
  %74 = zext i8 %73 to i32
  %75 = or disjoint i32 %71, %74
  br label %76

76:                                               ; preds = %72, %.lr.ph58.split.i
  %.140.i = phi i32 [ %75, %72 ], [ %71, %.lr.ph58.split.i ]
  %77 = add nsw i32 %.04252.i, 8
  %78 = icmp sgt i32 %.04252.i, -3
  br i1 %78, label %.lr.ph.i, label %._crit_edge.split.i

.lr.ph.i:                                         ; preds = %76, %.lr.ph.i
  %.249.i = phi ptr [ %.3.i, %.lr.ph.i ], [ %.155.i, %76 ]
  %.14348.i = phi i32 [ %79, %.lr.ph.i ], [ %77, %76 ]
  %79 = add nsw i32 %.14348.i, -6
  %80 = lshr i32 %.140.i, %79
  %81 = and i32 %80, 63
  %.not.i = icmp eq i32 %81, 0
  %82 = trunc i32 %80 to i8
  %83 = and i8 %82, 63
  %84 = add nuw nsw i8 %83, 32
  %spec.select.i = select i1 %.not.i, i8 96, i8 %84
  %.3.i = getelementptr i8, ptr %.249.i, i64 1
  store i8 %spec.select.i, ptr %.249.i, align 1, !tbaa !11
  %85 = icmp samesign ugt i32 %.14348.i, 11
  br i1 %85, label %.lr.ph.i, label %._crit_edge.split.i, !llvm.loop !27

._crit_edge.split.i:                              ; preds = %.lr.ph.i, %76
  %.143.lcssa.i = phi i32 [ %77, %76 ], [ %79, %.lr.ph.i ]
  %.2.lcssa.i = phi ptr [ %.155.i, %76 ], [ %.3.i, %.lr.ph.i ]
  %86 = add i64 %.03756.i, -1
  %87 = getelementptr i8, ptr %.04153.i, i64 1
  %88 = icmp sgt i64 %86, 0
  %89 = icmp ne i32 %.143.lcssa.i, 0
  %90 = or i1 %88, %89
  br i1 %90, label %.lr.ph58.split.i, label %._crit_edge59.i, !llvm.loop !26

._crit_edge59.i:                                  ; preds = %._crit_edge.split.i, %._crit_edge.split.us.us.i, %44
  %.1.lcssa.i = phi ptr [ %.038.i, %44 ], [ %.2.lcssa.us.i, %._crit_edge.split.us.us.i ], [ %.2.lcssa.i, %._crit_edge.split.i ]
  %91 = getelementptr i8, ptr %.1.lcssa.i, i64 1
  store i8 10, ptr %.1.lcssa.i, align 1, !tbaa !11
  %92 = call ptr @_PyBytesWriter_Finish(ptr noundef nonnull %5, ptr noundef %91) #5
  br label %binascii_b2a_uu_impl.exit

binascii_b2a_uu_impl.exit:                        ; preds = %32, %35, %37, %._crit_edge59.i
  %.0.i = phi ptr [ null, %35 ], [ %92, %._crit_edge59.i ], [ null, %32 ], [ null, %37 ]
  call void @llvm.lifetime.end.p0(i64 552, ptr nonnull %5) #5
  br label %93

93:                                               ; preds = %22, %.thread, %16, %binascii_b2a_uu_impl.exit
  %.023 = phi ptr [ null, %.thread ], [ null, %22 ], [ %.0.i, %binascii_b2a_uu_impl.exit ], [ null, %16 ]
  %94 = getelementptr inbounds nuw i8, ptr %7, i64 8
  %95 = load ptr, ptr %94, align 8, !tbaa !21
  %.not31 = icmp eq ptr %95, null
  br i1 %.not31, label %97, label %96

96:                                               ; preds = %93
  call void @PyBuffer_Release(ptr noundef nonnull %7) #5
  br label %97

97:                                               ; preds = %96, %93
  call void @llvm.lifetime.end.p0(i64 80, ptr nonnull %7) #5
  call void @llvm.lifetime.end.p0(i64 16, ptr nonnull %6) #5
  ret ptr %.023
}